target datalayout = "e-m:e-p270:32:32-p271:32:32-p272:64:64-i64:64-i128:128-f80:128-n8:16:32:64-S128"
target triple = "x86_64-pc-linux-gnu"

%struct.FIXTURE = type { ptr, ptr, ptr, ptr }

@.str = private unnamed_addr constant [40 x i8] c"../openssl/test/keymgmt_internal_test.c\00", align 1
@.str.2 = private unnamed_addr constant [14 x i8] c"test_pass_key\00", align 1
@tests = internal global [1 x ptr] [ptr @test_pass_rsa], align 8
@.str.4 = private unnamed_addr constant [43 x i8] c"fixture = OPENSSL_zalloc(sizeof(*fixture))\00", align 1
@.str.5 = private unnamed_addr constant [35 x i8] c"fixture->ctx1 = OSSL_LIB_CTX_new()\00", align 1
@.str.6 = private unnamed_addr constant [62 x i8] c"fixture->prov1 = OSSL_PROVIDER_load(fixture->ctx1, \22default\22)\00", align 1
@.str.7 = private unnamed_addr constant [8 x i8] c"default\00", align 1
@.str.8 = private unnamed_addr constant [35 x i8] c"fixture->ctx2 = OSSL_LIB_CTX_new()\00", align 1
@.str.9 = private unnamed_addr constant [62 x i8] c"fixture->prov2 = OSSL_PROVIDER_load(fixture->ctx2, \22default\22)\00", align 1

; Function Attrs: nounwind uwtable
define internal void @tear_down(ptr noundef %0) #0 {
  %2 = alloca ptr, align 8
  store ptr %0, ptr %2, align 8, !tbaa !11
  %3 = load ptr, ptr %2, align 8, !tbaa !11
  %4 = icmp ne ptr %3, null
  br i1 %4, label %5, label %21

5:                                                ; preds = %1
  %6 = load ptr, ptr %2, align 8, !tbaa !11
  %7 = getelementptr inbounds nuw %struct.FIXTURE, ptr %6, i32 0, i32 1
  %8 = load ptr, ptr %7, align 8, !tbaa !28
  %9 = call i32 @OSSL_PROVIDER_unload(ptr noundef %8)
  %10 = load ptr, ptr %2, align 8, !tbaa !11
  %11 = getelementptr inbounds nuw %struct.FIXTURE, ptr %10, i32 0, i32 3
  %12 = load ptr, ptr %11, align 8, !tbaa !30
  %13 = call i32 @OSSL_PROVIDER_unload(ptr noundef %12)
  %14 = load ptr, ptr %2, align 8, !tbaa !11
  %15 = getelementptr inbounds nuw %struct.FIXTURE, ptr %14, i32 0, i32 0
  %16 = load ptr, ptr %15, align 8, !tbaa !26
  call void @OSSL_LIB_CTX_free(ptr noundef %16)
  %17 = load ptr, ptr %2, align 8, !tbaa !11
  %18 = getelementptr inbounds nuw %struct.FIXTURE, ptr %17, i32 0, i32 2
  %19 = load ptr, ptr %18, align 8, !tbaa !29
  call void @OSSL_LIB_CTX_free(ptr noundef %19)
  %20 = load ptr, ptr %2, align 8, !tbaa !11
  call void @CRYPTO_free(ptr noundef %20, ptr noundef @.str, i32 noundef 47)
  br label %21

21:                                               ; preds = %5, %1
  ret void
}

; Function Attrs: nounwind uwtable
define internal ptr @set_up(ptr noundef %0) #0 {
  %2 = alloca ptr, align 8
  %3 = alloca ptr, align 8
  %4 = alloca ptr, align 8
  %5 = alloca i32, align 4
  store ptr %0, ptr %3, align 8, !tbaa !4
  call void @llvm.lifetime.start.p0(i64 8, ptr %4) #4
  %6 = call noalias ptr @CRYPTO_zalloc(i64 noundef 32, ptr noundef @.str, i32 noundef 55)
  store ptr %6, ptr %4, align 8, !tbaa !11
  %7 = call i32 @test_ptr(ptr noundef @.str, i32 noundef 55, ptr noundef @.str.4, ptr noundef %6)
  %8 = icmp ne i32 %7, 0
  br i1 %8, label %9, label %39

9:                                                ; preds = %1
  %10 = call ptr @OSSL_LIB_CTX_new()
  %11 = load ptr, ptr %4, align 8, !tbaa !11
  %12 = getelementptr inbounds nuw %struct.FIXTURE, ptr %11, i32 0, i32 0
  store ptr %10, ptr %12, align 8, !tbaa !26
  %13 = call i32 @test_ptr(ptr noundef @.str, i32 noundef 56, ptr noundef @.str.5, ptr noundef %10)
  %14 = icmp ne i32 %13, 0
  br i1 %14, label %15, label %39

15:                                               ; preds = %9
  %16 = load ptr, ptr %4, align 8, !tbaa !11
  %17 = getelementptr inbounds nuw %struct.FIXTURE, ptr %16, i32 0, i32 0
  %18 = load ptr, ptr %17, align 8, !tbaa !26
  %19 = call ptr @OSSL_PROVIDER_load(ptr noundef %18, ptr noundef @.str.7)
  %20 = load ptr, ptr %4, align 8, !tbaa !11
  %21 = getelementptr inbounds nuw %struct.FIXTURE, ptr %20, i32 0, i32 1
  store ptr %19, ptr %21, align 8, !tbaa !28
  %22 = call i32 @test_ptr(ptr noundef @.str, i32 noundef 58, ptr noundef @.str.6, ptr noundef %19)
  %23 = icmp ne i32 %22, 0
  br i1 %23, label %24, label %39

24:                                               ; preds = %15
  %25 = call ptr @OSSL_LIB_CTX_new()
  %26 = load ptr, ptr %4, align 8, !tbaa !11
  %27 = getelementptr inbounds nuw %struct.FIXTURE, ptr %26, i32 0, i32 2
  store ptr %25, ptr %27, align 8, !tbaa !29
  %28 = call i32 @test_ptr(ptr noundef @.str, i32 noundef 59, ptr noundef @.str.8, ptr noundef %25)
  %29 = icmp ne i32 %28, 0
  br i1 %29, label %30, label %39

30:                                               ; preds = %24
  %31 = load ptr, ptr %4, align 8, !tbaa !11
  %32 = getelementptr inbounds nuw %struct.FIXTURE, ptr %31, i32 0, i32 2
  %33 = load ptr, ptr %32, align 8, !tbaa !29
  %34 = call ptr @OSSL_PROVIDER_load(ptr noundef %33, ptr noundef @.str.7)
  %35 = load ptr, ptr %4, align 8, !tbaa !11
  %36 = getelementptr inbounds nuw %struct.FIXTURE, ptr %35, i32 0, i32 3
  store ptr %34, ptr %36, align 8, !tbaa !30
  %37 = call i32 @test_ptr(ptr noundef @.str, i32 noundef 61, ptr noundef @.str.9, ptr noundef %34)
  %38 = icmp ne i32 %37, 0
  br i1 %38, label %41, label %39

39:                                               ; preds = %30, %24, %15, %9, %1
  %40 = load ptr, ptr %4, align 8, !tbaa !11
  call void @tear_down(ptr noundef %40)
  store ptr null, ptr %2, align 8
  store i32 1, ptr %5, align 4
  br label %43

41:                                               ; preds = %30
  %42 = load ptr, ptr %4, align 8, !tbaa !11
  store ptr %42, ptr %2, align 8
  store i32 1, ptr %5, align 4
  br label %43

43:                                               ; preds = %41, %39
  call void @llvm.lifetime.end.p0(i64 8, ptr %4) #4
  %44 = load ptr, ptr %2, align 8
  ret ptr %44
}

; Function Attrs: nounwind uwtable
define internal i32 @test_pass_key(i32 noundef %0) #0 {
  %2 = alloca i32, align 4
  %3 = alloca i32, align 4
  %4 = alloca ptr, align 8
  %5 = alloca i32, align 4
  %6 = alloca i32, align 4
  store i32 %0, ptr %3, align 4, !tbaa !9
  call void @llvm.lifetime.start.p0(i64 8, ptr %4) #4
  %7 = call ptr @set_up(ptr noundef @.str.2)
  store ptr %7, ptr %4, align 8, !tbaa !11
  call void @llvm.lifetime.start.p0(i64 4, ptr %5) #4
  store i32 0, ptr %5, align 4, !tbaa !9
  %8 = load ptr, ptr %4, align 8, !tbaa !11
  %9 = icmp eq ptr %8, null
  br i1 %9, label %10, label %11

10:                                               ; preds = %1
  store i32 0, ptr %2, align 4
  store i32 1, ptr %6, align 4
  br label %24

11:                                               ; preds = %1
  %12 = load ptr, ptr %4, align 8, !tbaa !11
  %13 = icmp ne ptr %12, null
  br i1 %13, label %14, label %22

14:                                               ; preds = %11
  %15 = load i32, ptr %3, align 4, !tbaa !9
  %16 = sext i32 %15 to i64
  %17 = getelementptr inbounds [1 x ptr], ptr @tests, i64 0, i64 %16
  %18 = load ptr, ptr %17, align 8, !tbaa !11
  %19 = load ptr, ptr %4, align 8, !tbaa !11
  %20 = call i32 %18(ptr noundef %19)
  store i32 %20, ptr %5, align 4, !tbaa !9
  %21 = load ptr, ptr %4, align 8, !tbaa !11
  call void @tear_down(ptr noundef %21)
  br label %22

22:                                               ; preds = %14, %11
  %23 = load i32, ptr %5, align 4, !tbaa !9
  store i32 %23, ptr %2, align 4
  store i32 1, ptr %6, align 4
  br label %24

24:                                               ; preds = %22, %10
  call void @llvm.lifetime.end.p0(i64 4, ptr %5) #4
  call void @llvm.lifetime.end.p0(i64 8, ptr %4) #4
  %25 = load i32, ptr %2, align 4
  ret i32 %25
}