; Function Attrs: nounwind uwtable
define internal range(i32 0, 2) i32 @test_pass_key(i32 %0) #0 {
  %2 = tail call noalias ptr @CRYPTO_zalloc(i64 noundef 32, ptr noundef nonnull @.str, i32 noundef 55) #3
  %3 = tail call i32 @test_ptr(ptr noundef nonnull @.str, i32 noundef 55, ptr noundef nonnull @.str.4, ptr noundef %2) #3
  %.not.i = icmp eq i32 %3, 0
  br i1 %.not.i, label %21, label %4

4:                                                ; preds = %1
  %5 = tail call ptr @OSSL_LIB_CTX_new() #3
  store ptr %5, ptr %2, align 8, !tbaa !9
  %6 = tail call i32 @test_ptr(ptr noundef nonnull @.str, i32 noundef 56, ptr noundef nonnull @.str.5, ptr noundef %5) #3
  %.not9.i = icmp eq i32 %6, 0
  br i1 %.not9.i, label %.thread.i, label %7

7:                                                ; preds = %4
  %8 = load ptr, ptr %2, align 8, !tbaa !9
  %9 = tail call ptr @OSSL_PROVIDER_load(ptr noundef %8, ptr noundef nonnull @.str.7) #3
  %10 = getelementptr inbounds nuw i8, ptr %2, i64 8
  store ptr %9, ptr %10, align 8, !tbaa !13
  %11 = tail call i32 @test_ptr(ptr noundef nonnull @.str, i32 noundef 58, ptr noundef nonnull @.str.6, ptr noundef %9) #3
  %.not10.i = icmp eq i32 %11, 0
  br i1 %.not10.i, label %.thread.i, label %12

12:                                               ; preds = %7
  %13 = tail call ptr @OSSL_LIB_CTX_new() #3
  %14 = getelementptr inbounds nuw i8, ptr %2, i64 16
  store ptr %13, ptr %14, align 8, !tbaa !14
  %15 = tail call i32 @test_ptr(ptr noundef nonnull @.str, i32 noundef 59, ptr noundef nonnull @.str.8, ptr noundef %13) #3
  %.not11.i = icmp eq i32 %15, 0
  br i1 %.not11.i, label %.thread.i, label %16

16:                                               ; preds = %12
  %17 = load ptr, ptr %14, align 8, !tbaa !14
  %18 = tail call ptr @OSSL_PROVIDER_load(ptr noundef %17, ptr noundef nonnull @.str.7) #3
  %19 = getelementptr inbounds nuw i8, ptr %2, i64 24
  store ptr %18, ptr %19, align 8, !tbaa !15
  %20 = tail call i32 @test_ptr(ptr noundef nonnull @.str, i32 noundef 61, ptr noundef nonnull @.str.9, ptr noundef %18) #3
  %.not12.i = icmp eq i32 %20, 0
  br i1 %.not12.i, label %.thread.i, label %tear_down.exit

21:                                               ; preds = %1
  %.not.i.i = icmp eq ptr %2, null
  br i1 %.not.i.i, label %set_up.exit.thread, label %.thread.i

.thread.i:                                        ; preds = %21, %16, %12, %7, %4
  %22 = getelementptr inbounds nuw i8, ptr %2, i64 8
  %23 = load ptr, ptr %22, align 8, !tbaa !13
  %24 = tail call i32 @OSSL_PROVIDER_unload(ptr noundef %23) #3
  %25 = getelementptr inbounds nuw i8, ptr %2, i64 24
  %26 = load ptr, ptr %25, align 8, !tbaa !15
  %27 = tail call i32 @OSSL_PROVIDER_unload(ptr noundef %26) #3
  %28 = load ptr, ptr %2, align 8, !tbaa !9
  tail call void @OSSL_LIB_CTX_free(ptr noundef %28) #3
  %29 = getelementptr inbounds nuw i8, ptr %2, i64 16
  br label %set_up.exit.thread.sink.split

tear_down.exit:                                   ; preds = %16
  %30 = tail call fastcc i32 @test_pass_rsa(ptr noundef nonnull %2)
  %31 = load ptr, ptr %10, align 8, !tbaa !13
  %32 = tail call i32 @OSSL_PROVIDER_unload(ptr noundef %31) #3
  %33 = load ptr, ptr %19, align 8, !tbaa !15
  %34 = tail call i32 @OSSL_PROVIDER_unload(ptr noundef %33) #3
  %35 = load ptr, ptr %2, align 8, !tbaa !9
  tail call void @OSSL_LIB_CTX_free(ptr noundef %35) #3
  br label %set_up.exit.thread.sink.split

set_up.exit.thread.sink.split:                    ; preds = %tear_down.exit, %.thread.i
  %.sink.in = phi ptr [ %29, %.thread.i ], [ %14, %tear_down.exit ]
  %.06.ph = phi i32 [ 0, %.thread.i ], [ %30, %tear_down.exit ]
  %.sink = load ptr, ptr %.sink.in, align 8, !tbaa !14
  tail call void @OSSL_LIB_CTX_free(ptr noundef %.sink) #3
  tail call void @CRYPTO_free(ptr noundef nonnull %2, ptr noundef nonnull @.str, i32 noundef 47) #3
  br label %set_up.exit.thread

set_up.exit.thread:                               ; preds = %set_up.exit.thread.sink.split, %21
  %.06 = phi i32 [ 0, %21 ], [ %.06.ph, %set_up.exit.thread.sink.split ]
  ret i32 %.06
}